Certificate:
    Data:
        Version: 3 (0x2)
        Serial Number: 4097 (0x1001)
        Signature Algorithm: md5WithRSAEncryption
        Issuer: C=US, ST=UT, L=SLC, O=BR, OU=BR, CN=Brian/emailAddress=brianerichsen@gmail.com
        Validity
            Not Before: Mar 26 21:06:18 2024 GMT
            Not After : Mar 26 21:06:18 2025 GMT
        Subject: C=US, ST=UT, O=BR, OU=BR, CN=Lisa1/emailAddress=lisa1erichsen@gmail.com
        Subject Public Key Info:
            Public Key Algorithm: rsaEncryption
                Public-Key: (4096 bit)
                Modulus:
                    00:cb:02:7b:d9:4f:d5:ee:9a:ce:52:ed:22:d5:24:
                    10:fd:ff:d0:5d:cc:27:37:2f:82:c4:27:29:6a:a3:
                    ee:b9:21:96:b3:d7:01:25:01:61:39:ac:05:cb:14:
                    ff:0f:09:ea:19:36:66:c4:57:72:5b:9b:38:b0:70:
                    c5:b1:79:b0:af:f4:30:b4:94:a2:b3:3a:ff:e8:fa:
                    21:e6:19:61:c4:13:a3:02:b8:5f:91:15:6d:46:fc:
                    03:05:08:9b:b2:ef:0f:6f:32:de:5e:53:a4:4b:0c:
                    37:91:e5:e9:7c:89:af:c9:17:c7:86:8d:90:db:92:
                    c6:a6:11:c9:00:02:81:18:39:d0:11:d6:7d:c9:fc:
                    db:68:09:e2:af:84:53:99:e3:1b:ed:41:29:e2:3f:
                    e0:1f:46:d8:3c:8d:24:31:3a:76:30:f4:f6:b0:e0:
                    f3:56:e2:44:b0:9f:39:f3:45:8a:c4:14:52:20:da:
                    ba:e3:ff:0c:df:a8:6c:c5:30:f8:bc:64:00:93:ef:
                    41:be:01:9b:68:6a:2c:21:f3:a8:34:b7:60:de:d7:
                    25:54:87:5d:94:45:88:67:c8:7a:eb:72:72:d9:ab:
                    97:c1:7d:63:08:2a:d9:d9:6c:4e:64:21:ba:a8:9f:
                    51:b7:35:c3:bd:97:50:c3:f3:d8:69:22:5f:b3:07:
                    ea:0b:08:05:34:2c:fd:e5:a3:b4:8f:12:15:a0:d6:
                    b6:22:f8:0f:04:0b:6c:de:94:9f:01:13:43:c6:67:
                    f2:ac:05:e4:7c:3a:ff:8c:b9:d0:a4:9f:47:0e:0d:
                    11:1a:7f:3f:5f:aa:06:31:48:3d:65:1b:1d:71:ce:
                    f5:d0:fc:4a:b1:d5:07:c8:98:88:26:af:8a:e6:7b:
                    35:c2:c2:a3:b3:24:cf:83:4e:8b:a8:ff:5c:00:98:
                    4e:73:4b:05:6c:8a:1b:4e:dd:8a:c7:85:7e:b5:fe:
                    e1:4d:0c:15:32:b9:20:28:57:77:de:8c:a2:f0:cc:
                    74:2d:d5:1f:43:c9:54:af:fc:88:76:73:ad:4d:50:
                    ce:e4:60:97:96:fa:3f:29:7c:2e:d8:b3:c5:1f:1c:
                    17:c0:7e:f1:a8:78:ae:fb:ab:29:3e:3d:f8:9b:55:
                    86:62:50:e6:be:f1:8b:d6:25:bd:32:73:57:9f:61:
                    f8:fd:6f:9e:bd:99:d6:89:c2:d2:1a:c2:1c:dc:05:
                    09:6e:75:99:f8:83:43:58:e0:ff:df:12:0a:a8:32:
                    7f:74:6a:65:91:ed:89:b1:d6:3c:33:1b:2d:b0:db:
                    ca:1e:38:d1:ba:9e:1c:89:87:b1:3c:79:9e:3c:90:
                    81:06:26:c1:1b:b1:24:17:99:a9:42:e4:16:7b:6e:
                    29:ad:cd
                Exponent: 65537 (0x10001)
        X509v3 extensions:
            X509v3 Basic Constraints: 
                CA:FALSE
            Netscape Comment: 
                OpenSSL Generated Certificate
            X509v3 Subject Key Identifier: 
                F2:22:CF:A1:23:8B:4D:77:98:EB:BA:E0:9B:7F:BA:13:EB:B7:5B:1D
            X509v3 Authority Key Identifier: 
                keyid:5A:0B:42:8C:AA:7D:FE:B9:9C:4F:35:63:82:49:CC:59:8C:58:FB:71
                DirName:/C=US/ST=UT/L=SLC/O=BR/OU=BR/CN=Brian/emailAddress=brianerichsen@gmail.com
                serial:66:C7:27:08:21:14:54:A1:B4:64:8C:0F:8B:0D:56:C0:F4:37:71:BE
    Signature Algorithm: md5WithRSAEncryption
    Signature Value:
        64:f7:d2:f4:bb:28:d4:57:82:02:de:e7:bc:22:e5:dd:65:11:
        4a:40:60:1a:d5:9f:d9:13:18:98:8b:65:8c:51:ca:b2:a3:93:
        6f:ed:3a:b3:72:5f:10:c1:31:52:8e:c3:cc:02:a2:0d:cc:0d:
        3b:02:b0:47:bd:11:17:b4:94:58:c6:f6:2d:ee:cf:89:3e:8e:
        fa:e5:35:e2:1b:c7:af:86:c4:07:74:e4:81:37:23:e2:bc:73:
        9e:45:c9:79:c4:8e:8a:b8:48:9c:31:93:04:d2:f8:ef:30:b3:
        b6:39:03:bd:32:df:4b:fe:5c:41:db:68:b7:69:f4:fa:95:01:
        d0:1d:45:a4:f2:8d:48:f5:0b:37:8e:7f:67:ce:91:d8:32:df:
        d1:c0:d8:4b:12:de:ac:08:f1:71:cc:a7:21:7c:4d:59:b0:67:
        af:4a:f2:24:c4:09:b0:e7:28:0c:30:72:d9:bd:ef:b0:50:21:
        f7:c0:7b:e0:ec:71:bf:36:37:94:16:0c:21:be:b0:c1:02:97:
        41:0b:5d:0c:ba:df:be:c6:9f:45:ec:60:b8:cd:dd:4e:3e:e6:
        83:43:b1:80:c6:27:b5:b3:c8:fd:d8:21:92:c0:1d:d4:8f:bf:
        c5:76:89:29:85:e7:1c:a7:c0:39:8a:53:7c:01:0a:ce:78:8c:
        d2:9c:3b:2f:33:f4:cf:fb:95:66:8f:f7:e5:3f:ab:f9:e2:ed:
        37:4a:7e:4d:b6:df:7b:ff:13:f7:0d:3f:bb:93:92:56:3f:39:
        4d:d5:43:56:63:21:a6:2d:e4:1e:ed:88:e2:37:b7:0a:5a:fb:
        3f:ec:72:38:83:bd:8f:a0:a0:dd:70:56:03:de:1d:42:83:f2:
        b7:f1:27:2d:fb:5f:de:30:a1:e2:ab:81:f6:2d:75:1e:1b:4f:
        43:f6:57:3a:c5:f5:b4:52:44:f8:75:5f:9c:a2:9a:0b:5e:63:
        fb:41:57:15:0f:02:4e:a8:6d:86:4a:13:c1:6e:94:8c:cc:62:
        66:bb:ea:d6:fe:d0:ad:e6:90:4e:77:6f:91:09:2d:d9:1e:65:
        b5:dc:98:95:da:fe:b6:b2:06:4c:b5:e2:a8:4a:62:a3:ce:c3:
        e9:a3:ef:31:99:0c:27:44:06:bb:c6:99:c1:89:44:5f:2d:1c:
        19:a8:38:81:84:a0:b5:e3:d4:91:30:a9:2c:db:4c:7c:c5:13:
        1c:62:bd:38:b3:e9:ae:d6:ad:f4:13:c8:fd:72:a2:cd:68:dc:
        ce:a3:d2:98:96:67:5a:07:d6:70:df:9e:cf:2c:82:6a:1d:d0:
        2e:be:1d:1d:cb:56:21:ca:6c:c2:19:14:d0:9c:81:77:ec:24:
        a6:dc:dd:da:24:57:d8:76
-----BEGIN CERTIFICATE-----
MIIGejCCBGKgAwIBAgICEAEwDQYJKoZIhvcNAQEEBQAwejELMAkGA1UEBhMCVVMx
CzAJBgNVBAgMAlVUMQwwCgYDVQQHDANTTEMxCzAJBgNVBAoMAkJSMQswCQYDVQQL
DAJCUjEOMAwGA1UEAwwFQnJpYW4xJjAkBgkqhkiG9w0BCQEWF2JyaWFuZXJpY2hz
ZW5AZ21haWwuY29tMB4XDTI0MDMyNjIxMDYxOFoXDTI1MDMyNjIxMDYxOFowbDEL
MAkGA1UEBhMCVVMxCzAJBgNVBAgMAlVUMQswCQYDVQQKDAJCUjELMAkGA1UECwwC
QlIxDjAMBgNVBAMMBUxpc2ExMSYwJAYJKoZIhvcNAQkBFhdsaXNhMWVyaWNoc2Vu
QGdtYWlsLmNvbTCCAiIwDQYJKoZIhvcNAQEBBQADggIPADCCAgoCggIBAMsCe9lP
1e6azlLtItUkEP3/0F3MJzcvgsQnKWqj7rkhlrPXASUBYTmsBcsU/w8J6hk2ZsRX
clubOLBwxbF5sK/0MLSUorM6/+j6IeYZYcQTowK4X5EVbUb8AwUIm7LvD28y3l5T
pEsMN5Hl6XyJr8kXx4aNkNuSxqYRyQACgRg50BHWfcn822gJ4q+EU5njG+1BKeI/
4B9G2DyNJDE6djD09rDg81biRLCfOfNFisQUUiDauuP/DN+obMUw+LxkAJPvQb4B
m2hqLCHzqDS3YN7XJVSHXZRFiGfIeutyctmrl8F9Ywgq2dlsTmQhuqifUbc1w72X
UMPz2GkiX7MH6gsIBTQs/eWjtI8SFaDWtiL4DwQLbN6UnwETQ8Zn8qwF5Hw6/4y5
0KSfRw4NERp/P1+qBjFIPWUbHXHO9dD8SrHVB8iYiCaviuZ7NcLCo7Mkz4NOi6j/
XACYTnNLBWyKG07diseFfrX+4U0MFTK5IChXd96MovDMdC3VH0PJVK/8iHZzrU1Q
zuRgl5b6Pyl8LtizxR8cF8B+8ah4rvurKT49+JtVhmJQ5r7xi9YlvTJzV59h+P1v
nr2Z1onC0hrCHNwFCW51mfiDQ1jg/98SCqgyf3RqZZHtibHWPDMbLbDbyh440bqe
HImHsTx5njyQgQYmwRuxJBeZqULkFntuKa3NAgMBAAGjggEWMIIBEjAJBgNVHRME
AjAAMCwGCWCGSAGG+EIBDQQfFh1PcGVuU1NMIEdlbmVyYXRlZCBDZXJ0aWZpY2F0
ZTAdBgNVHQ4EFgQU8iLPoSOLTXeY67rgm3+6E+u3Wx0wgbcGA1UdIwSBrzCBrIAU
WgtCjKp9/rmcTzVjgknMWYxY+3GhfqR8MHoxCzAJBgNVBAYTAlVTMQswCQYDVQQI
DAJVVDEMMAoGA1UEBwwDU0xDMQswCQYDVQQKDAJCUjELMAkGA1UECwwCQlIxDjAM
BgNVBAMMBUJyaWFuMSYwJAYJKoZIhvcNAQkBFhdicmlhbmVyaWNoc2VuQGdtYWls
LmNvbYIUZscnCCEUVKG0ZIwPiw1WwPQ3cb4wDQYJKoZIhvcNAQEEBQADggIBAGT3
0vS7KNRXggLe57wi5d1lEUpAYBrVn9kTGJiLZYxRyrKjk2/tOrNyXxDBMVKOw8wC
og3MDTsCsEe9ERe0lFjG9i3uz4k+jvrlNeIbx6+GxAd05IE3I+K8c55FyXnEjoq4
SJwxkwTS+O8ws7Y5A70y30v+XEHbaLdp9PqVAdAdRaTyjUj1CzeOf2fOkdgy39HA
2EsS3qwI8XHMpyF8TVmwZ69K8iTECbDnKAwwctm977BQIffAe+Dscb82N5QWDCG+
sMECl0ELXQy6377Gn0XsYLjN3U4+5oNDsYDGJ7WzyP3YIZLAHdSPv8V2iSmF5xyn
wDmKU3wBCs54jNKcOy8z9M/7lWaP9+U/q/ni7TdKfk2233v/E/cNP7uTklY/OU3V
Q1ZjIaYt5B7tiOI3twpa+z/scjiDvY+goN1wVgPeHUKD8rfxJy37X94woeKrgfYt
dR4bT0P2VzrF9bRSRPh1X5yimgteY/tBVxUPAk6obYZKE8FulIzMYma76tb+0K3m
kE53b5EJLdkeZbXcmJXa/rayBky14qhKYqPOw+mj7zGZDCdEBrvGmcGJRF8tHBmo
OIGEoLXj1JEwqSzbTHzFExxivTiz6a7WrfQTyP1yos1o3M6j0piWZ1oH1nDfns8s
gmod0C6+HR3LViHKbMIZFNCcgXfsJKbc3dokV9h2
-----END CERTIFICATE-----
