Certificate:
    Data:
        Version: 3 (0x2)
        Serial Number: 4096 (0x1000)
        Signature Algorithm: md5WithRSAEncryption
        Issuer: C=US, ST=UT, L=SLC, O=BR, OU=BR, CN=Brian/emailAddress=brianerichsen@gmail.com
        Validity
            Not Before: Mar 26 21:03:43 2024 GMT
            Not After : Mar 26 21:03:43 2025 GMT
        Subject: C=US, ST=UT, O=BR, OU=BR, CN=Lisa/emailAddress=lisaerichsen@gmail.com
        Subject Public Key Info:
            Public Key Algorithm: rsaEncryption
                Public-Key: (4096 bit)
                Modulus:
                    00:a5:94:f7:20:43:ca:08:d8:91:e2:9b:b0:ac:1b:
                    00:a1:42:76:55:41:96:19:67:aa:1b:81:d4:df:0a:
                    60:41:8e:e7:16:55:c6:15:64:e3:75:e7:b6:f7:28:
                    1e:d1:72:1b:f6:3d:97:78:5e:8e:a4:3f:d8:32:ec:
                    ab:89:9d:21:14:ff:4f:3b:a1:d3:94:e4:c9:38:29:
                    f5:91:2a:05:5a:7c:a1:5c:c6:04:82:11:36:12:e2:
                    04:af:a1:3a:b7:6d:e5:91:d7:22:f1:1a:fa:d0:19:
                    c5:46:96:99:5e:dc:1e:e8:6b:4c:d7:25:cf:21:8e:
                    17:dd:e8:1a:0f:de:8e:44:f2:3b:36:ec:f0:32:7e:
                    26:28:57:89:3a:e2:25:d9:b3:5d:9f:3d:3e:2f:3d:
                    4e:6d:29:1e:c0:aa:55:9e:93:53:19:ef:1c:01:4c:
                    91:8b:f8:05:29:f6:27:4b:8d:37:64:8c:e7:fe:46:
                    39:7a:bd:2f:36:4c:71:4b:c8:8f:51:33:b9:90:a6:
                    f2:f2:91:8e:dc:fd:0a:34:04:da:4b:47:11:4f:9b:
                    c8:7b:6c:ec:06:2f:11:1a:38:e2:ee:1a:39:cb:c4:
                    c3:a2:26:d1:90:66:a8:0a:5a:e8:22:22:1b:bd:5f:
                    f5:3b:cd:fe:66:71:bc:d8:05:eb:c7:60:75:34:aa:
                    f8:4b:e2:c0:5a:e9:b4:78:b3:2a:d7:2b:d0:d4:46:
                    37:0b:e7:f3:9e:48:79:78:39:f8:7e:5e:7f:81:dc:
                    c5:4d:f0:58:2a:0c:89:c0:c5:fd:66:02:2d:77:ec:
                    71:e0:10:02:36:ab:1f:cd:99:29:23:40:0a:11:16:
                    47:45:5a:ad:26:78:0d:2c:80:f5:33:e2:2e:bf:99:
                    e8:75:67:68:c9:2d:41:12:41:fb:ef:42:39:b9:5a:
                    e7:22:01:7e:a6:6a:4a:19:98:e4:8a:d1:91:8d:fc:
                    c3:c5:7d:cd:43:76:b0:8c:2f:41:47:dc:6a:84:7e:
                    bd:78:52:b3:8b:c9:d1:59:67:26:52:04:4d:70:93:
                    1f:45:36:49:b0:de:e1:36:4e:42:e0:3f:be:0e:6b:
                    c6:91:7f:47:18:6d:34:99:6b:71:81:66:c7:1f:b8:
                    a1:55:c2:14:77:ea:f0:17:69:06:c3:a1:15:93:63:
                    3b:08:17:22:a8:09:9b:c8:cb:8a:25:4c:c9:11:c4:
                    52:c2:b7:8a:61:01:4f:a9:51:bd:f5:31:7c:9a:a2:
                    4d:e5:bc:42:bf:ae:d9:09:48:d2:6d:24:14:23:8c:
                    56:2d:12:a2:62:8f:e6:eb:e5:da:6b:c5:18:f4:b8:
                    43:e0:a7:a7:86:63:90:72:d9:f8:02:3d:d6:72:6d:
                    49:ab:e9
                Exponent: 65537 (0x10001)
        X509v3 extensions:
            X509v3 Basic Constraints: 
                CA:FALSE
            Netscape Comment: 
                OpenSSL Generated Certificate
            X509v3 Subject Key Identifier: 
                48:4C:4E:B6:BC:DA:A6:51:A8:BD:D1:47:A5:68:E5:90:9A:47:8C:7C
            X509v3 Authority Key Identifier: 
                keyid:5A:0B:42:8C:AA:7D:FE:B9:9C:4F:35:63:82:49:CC:59:8C:58:FB:71
                DirName:/C=US/ST=UT/L=SLC/O=BR/OU=BR/CN=Brian/emailAddress=brianerichsen@gmail.com
                serial:66:C7:27:08:21:14:54:A1:B4:64:8C:0F:8B:0D:56:C0:F4:37:71:BE
    Signature Algorithm: md5WithRSAEncryption
    Signature Value:
        1c:fa:39:1a:7d:70:4e:7f:7b:ff:c9:3f:87:46:c4:8c:31:19:
        57:ac:82:22:9b:74:e6:e2:6a:32:8e:ab:ad:35:48:27:54:7b:
        f2:55:e1:e2:f4:64:96:e1:3c:39:3d:15:e0:b9:15:31:da:27:
        86:41:7b:33:af:40:d9:0d:ba:15:9b:54:d3:03:da:04:11:03:
        5a:d2:72:2f:3b:6f:12:60:e8:9b:08:04:1b:1b:c2:c2:4f:19:
        ef:cf:7c:8d:b1:58:16:0d:51:65:2b:fd:df:c0:f2:87:cc:2f:
        f5:65:33:66:22:5a:0b:94:41:21:38:f5:0a:fe:df:04:21:57:
        84:c6:16:32:03:0f:4f:75:a8:de:f8:b1:33:4a:45:0a:22:2c:
        29:d3:0c:93:2d:dd:6a:04:8b:f3:83:81:20:dc:27:1f:be:fa:
        ff:ad:26:c1:39:1f:25:cb:bf:ee:db:65:7d:0f:32:b5:99:fd:
        95:bd:8e:cf:e3:ef:92:d2:74:bb:fb:3f:29:a3:03:6f:3a:4b:
        1c:e1:54:61:40:af:c0:5f:a4:5f:60:1a:5d:2d:c1:7d:ff:71:
        b0:4c:bd:7f:85:4b:2c:ca:76:ff:88:5e:57:02:30:7c:b5:3c:
        0e:ea:5b:7d:2b:b7:74:1f:0e:0e:4f:40:44:eb:3d:97:be:75:
        1b:4b:54:d6:3a:4c:cc:05:5f:96:b7:1d:12:d7:39:b9:04:9a:
        3f:c6:5b:bd:0d:e8:7e:73:ca:dd:01:35:3a:f7:ba:6f:d5:19:
        45:a8:b3:80:e9:63:28:b1:9e:c7:36:f3:bb:53:ba:4f:ac:f2:
        23:10:43:f7:fd:26:6d:7b:65:ff:47:9f:a3:19:da:f0:e9:7c:
        d1:87:16:76:3b:c9:74:40:9b:36:84:42:15:b3:0f:19:8e:3a:
        22:6a:f7:0c:d7:98:01:1a:4d:b0:0a:75:b0:3b:85:23:c4:00:
        78:5d:18:2d:fe:f9:32:26:3a:93:ea:c4:3c:74:db:fe:f1:67:
        e9:87:a9:de:5a:12:ba:61:1a:59:42:9a:10:f8:c8:25:af:31:
        ae:54:b6:7d:40:5d:95:15:fe:8a:3b:e8:d4:05:65:85:44:b7:
        db:78:60:7b:fd:1e:85:30:35:c0:35:d1:d4:b4:8a:94:ef:86:
        8a:8c:cc:5d:36:97:7b:7b:5a:3f:ff:0e:fb:e0:c0:14:d5:65:
        a3:ac:bb:0c:5a:11:4d:ef:f9:ba:47:e7:eb:3a:7c:6e:32:1e:
        ec:e1:c3:c5:fc:7e:8b:e4:9a:cb:b1:30:18:ab:3b:10:2d:87:
        8c:9c:31:5e:dd:c6:45:16:9d:a0:37:98:a3:bd:28:28:ba:48:
        63:ed:bb:d1:ed:04:8f:5d
-----BEGIN CERTIFICATE-----
MIIGeDCCBGCgAwIBAgICEAAwDQYJKoZIhvcNAQEEBQAwejELMAkGA1UEBhMCVVMx
CzAJBgNVBAgMAlVUMQwwCgYDVQQHDANTTEMxCzAJBgNVBAoMAkJSMQswCQYDVQQL
DAJCUjEOMAwGA1UEAwwFQnJpYW4xJjAkBgkqhkiG9w0BCQEWF2JyaWFuZXJpY2hz
ZW5AZ21haWwuY29tMB4XDTI0MDMyNjIxMDM0M1oXDTI1MDMyNjIxMDM0M1owajEL
MAkGA1UEBhMCVVMxCzAJBgNVBAgMAlVUMQswCQYDVQQKDAJCUjELMAkGA1UECwwC
QlIxDTALBgNVBAMMBExpc2ExJTAjBgkqhkiG9w0BCQEWFmxpc2FlcmljaHNlbkBn
bWFpbC5jb20wggIiMA0GCSqGSIb3DQEBAQUAA4ICDwAwggIKAoICAQCllPcgQ8oI
2JHim7CsGwChQnZVQZYZZ6obgdTfCmBBjucWVcYVZON157b3KB7Rchv2PZd4Xo6k
P9gy7KuJnSEU/087odOU5Mk4KfWRKgVafKFcxgSCETYS4gSvoTq3beWR1yLxGvrQ
GcVGlple3B7oa0zXJc8hjhfd6BoP3o5E8js27PAyfiYoV4k64iXZs12fPT4vPU5t
KR7AqlWek1MZ7xwBTJGL+AUp9idLjTdkjOf+Rjl6vS82THFLyI9RM7mQpvLykY7c
/Qo0BNpLRxFPm8h7bOwGLxEaOOLuGjnLxMOiJtGQZqgKWugiIhu9X/U7zf5mcbzY
BevHYHU0qvhL4sBa6bR4syrXK9DURjcL5/OeSHl4Ofh+Xn+B3MVN8FgqDInAxf1m
Ai137HHgEAI2qx/NmSkjQAoRFkdFWq0meA0sgPUz4i6/meh1Z2jJLUESQfvvQjm5
WuciAX6makoZmOSK0ZGN/MPFfc1DdrCML0FH3GqEfr14UrOLydFZZyZSBE1wkx9F
Nkmw3uE2TkLgP74Oa8aRf0cYbTSZa3GBZscfuKFVwhR36vAXaQbDoRWTYzsIFyKo
CZvIy4olTMkRxFLCt4phAU+pUb31MXyaok3lvEK/rtkJSNJtJBQjjFYtEqJij+br
5dprxRj0uEPgp6eGY5By2fgCPdZybUmr6QIDAQABo4IBFjCCARIwCQYDVR0TBAIw
ADAsBglghkgBhvhCAQ0EHxYdT3BlblNTTCBHZW5lcmF0ZWQgQ2VydGlmaWNhdGUw
HQYDVR0OBBYEFEhMTra82qZRqL3RR6Vo5ZCaR4x8MIG3BgNVHSMEga8wgayAFFoL
Qoyqff65nE81Y4JJzFmMWPtxoX6kfDB6MQswCQYDVQQGEwJVUzELMAkGA1UECAwC
VVQxDDAKBgNVBAcMA1NMQzELMAkGA1UECgwCQlIxCzAJBgNVBAsMAkJSMQ4wDAYD
VQQDDAVCcmlhbjEmMCQGCSqGSIb3DQEJARYXYnJpYW5lcmljaHNlbkBnbWFpbC5j
b22CFGbHJwghFFShtGSMD4sNVsD0N3G+MA0GCSqGSIb3DQEBBAUAA4ICAQAc+jka
fXBOf3v/yT+HRsSMMRlXrIIim3Tm4moyjqutNUgnVHvyVeHi9GSW4Tw5PRXguRUx
2ieGQXszr0DZDboVm1TTA9oEEQNa0nIvO28SYOibCAQbG8LCTxnvz3yNsVgWDVFl
K/3fwPKHzC/1ZTNmIloLlEEhOPUK/t8EIVeExhYyAw9Pdaje+LEzSkUKIiwp0wyT
Ld1qBIvzg4Eg3Ccfvvr/rSbBOR8ly7/u22V9DzK1mf2VvY7P4++S0nS7+z8powNv
Oksc4VRhQK/AX6RfYBpdLcF9/3GwTL1/hUssynb/iF5XAjB8tTwO6lt9K7d0Hw4O
T0BE6z2XvnUbS1TWOkzMBV+Wtx0S1zm5BJo/xlu9Deh+c8rdATU697pv1RlFqLOA
6WMosZ7HNvO7U7pPrPIjEEP3/SZte2X/R5+jGdrw6XzRhxZ2O8l0QJs2hEIVsw8Z
jjoiavcM15gBGk2wCnWwO4UjxAB4XRgt/vkyJjqT6sQ8dNv+8Wfph6neWhK6YRpZ
QpoQ+MglrzGuVLZ9QF2VFf6KO+jUBWWFRLfbeGB7/R6FMDXANdHUtIqU74aKjMxd
Npd7e1o//w774MAU1WWjrLsMWhFN7/m6R+frOnxuMh7s4cPF/H6L5JrLsTAYqzsQ
LYeMnDFe3cZFFp2gN5ijvSgoukhj7bvR7QSPXQ==
-----END CERTIFICATE-----
